; Function Attrs: mustprogress nounwind uwtable
define dso_local void @_ZN4llvm13MCInstPrinter10WithMarkupD2Ev(ptr nocapture noundef nonnull readonly align 8 dereferenceable(10) %0) unnamed_addr #0 align 2 {
  %2 = getelementptr inbounds nuw i8, ptr %0, i64 8
  %3 = load i8, ptr %2, align 8
  %4 = trunc i8 %3 to i1
  br i1 %4, label %5, label %_ZN4llvm11raw_ostreamlsEc.exit

5:                                                ; preds = %1
  %6 = load ptr, ptr %0, align 8
  %7 = getelementptr inbounds nuw i8, ptr %6, i64 32
  %8 = load ptr, ptr %7, align 8
  %9 = getelementptr inbounds nuw i8, ptr %6, i64 24
  %10 = load ptr, ptr %9, align 8
  %.not.i = icmp ult ptr %8, %10
  br i1 %.not.i, label %13, label %11

11:                                               ; preds = %5
  %12 = tail call noundef nonnull align 8 dereferenceable(48) ptr @_ZN4llvm11raw_ostream5writeEh(ptr noundef nonnull align 8 dereferenceable(48) %6, i8 noundef zeroext 62) #13
  br label %_ZN4llvm11raw_ostreamlsEc.exit

13:                                               ; preds = %5
  %14 = getelementptr inbounds i8, ptr %8, i64 1
  store ptr %14, ptr %7, align 8
  store i8 62, ptr %8, align 1
  br label %_ZN4llvm11raw_ostreamlsEc.exit

_ZN4llvm11raw_ostreamlsEc.exit:                   ; preds = %13, %11, %1
  %15 = getelementptr inbounds nuw i8, ptr %0, i64 9
  %16 = load i8, ptr %15, align 1
  %17 = trunc i8 %16 to i1
  br i1 %17, label %18, label %24

18:                                               ; preds = %_ZN4llvm11raw_ostreamlsEc.exit
  %19 = load ptr, ptr %0, align 8
  %20 = load ptr, ptr %19, align 8
  %21 = getelementptr inbounds i8, ptr %20, i64 32
  %22 = load ptr, ptr %21, align 8
  %23 = tail call noundef nonnull align 8 dereferenceable(48) ptr %22(ptr noundef nonnull align 8 dereferenceable(48) %19) #13
  br label %24

24:                                               ; preds = %18, %_ZN4llvm11raw_ostreamlsEc.exit
  ret void
}